target datalayout = "e-m:e-p270:32:32-p271:32:32-p272:64:64-i64:64-i128:128-f80:128-n8:16:32:64-S128"
target triple = "x86_64-pc-linux-gnu"

%struct.struct_it8 = type { i32, i32, i32, [255 x %struct._Table], ptr, %struct._SubAllocator, i32, i32, i32, double, ptr, ptr, ptr, ptr, ptr, i32, [20 x ptr], i32, ptr, [128 x i8], ptr }
%struct._Table = type { [1024 x i8], i32, i32, i32, ptr, ptr, ptr }
%struct._SubAllocator = type { ptr, i32, i32 }
%struct.__va_list_tag = type { i32, i32, ptr, ptr }
%struct._FileContext = type { [256 x i8], ptr }

@.str.13 = private unnamed_addr constant [16 x i8] c"%s: Line %d, %s\00", align 1
@.str.14 = private unnamed_addr constant [3 x i8] c"%s\00", align 1

; Function Attrs: nounwind uwtable
define internal i32 @SynError(ptr noundef %0, ptr noundef %1, ...) #0 {
  %3 = alloca ptr, align 8
  %4 = alloca ptr, align 8
  %5 = alloca [256 x i8], align 16
  %6 = alloca [1024 x i8], align 16
  %7 = alloca [1 x %struct.__va_list_tag], align 16
  store ptr %0, ptr %3, align 8
  store ptr %1, ptr %4, align 8
  %8 = getelementptr inbounds [1 x %struct.__va_list_tag], ptr %7, i64 0, i64 0
  call void @llvm.va_start.p0(ptr %8)
  %9 = getelementptr inbounds [256 x i8], ptr %5, i64 0, i64 0
  %10 = load ptr, ptr %4, align 8
  %11 = getelementptr inbounds [1 x %struct.__va_list_tag], ptr %7, i64 0, i64 0
  %12 = call i32 @vsnprintf(ptr noundef %9, i64 noundef 255, ptr noundef %10, ptr noundef %11) #9
  %13 = getelementptr inbounds [256 x i8], ptr %5, i64 0, i64 255
  store i8 0, ptr %13, align 1
  %14 = getelementptr inbounds [1 x %struct.__va_list_tag], ptr %7, i64 0, i64 0
  call void @llvm.va_end.p0(ptr %14)
  %15 = getelementptr inbounds [1024 x i8], ptr %6, i64 0, i64 0
  %16 = load ptr, ptr %3, align 8
  %17 = getelementptr inbounds %struct.struct_it8, ptr %16, i32 0, i32 16
  %18 = load ptr, ptr %3, align 8
  %19 = getelementptr inbounds %struct.struct_it8, ptr %18, i32 0, i32 17
  %20 = load i32, ptr %19, align 8
  %21 = sext i32 %20 to i64
  %22 = getelementptr inbounds [20 x ptr], ptr %17, i64 0, i64 %21
  %23 = load ptr, ptr %22, align 8
  %24 = getelementptr inbounds %struct._FileContext, ptr %23, i32 0, i32 0
  %25 = getelementptr inbounds [256 x i8], ptr %24, i64 0, i64 0
  %26 = load ptr, ptr %3, align 8
  %27 = getelementptr inbounds %struct.struct_it8, ptr %26, i32 0, i32 15
  %28 = load i32, ptr %27, align 8
  %29 = getelementptr inbounds [256 x i8], ptr %5, i64 0, i64 0
  %30 = call i32 (ptr, i64, ptr, ...) @snprintf(ptr noundef %15, i64 noundef 1023, ptr noundef @.str.13, ptr noundef %25, i32 noundef %28, ptr noundef %29) #9
  %31 = getelementptr inbounds [1024 x i8], ptr %6, i64 0, i64 1023
  store i8 0, ptr %31, align 1
  %32 = load ptr, ptr %3, align 8
  %33 = getelementptr inbounds %struct.struct_it8, ptr %32, i32 0, i32 6
  store i32 8, ptr %33, align 8
  %34 = load ptr, ptr %3, align 8
  %35 = getelementptr inbounds %struct.struct_it8, ptr %34, i32 0, i32 20
  %36 = load ptr, ptr %35, align 8
  %37 = getelementptr inbounds [1024 x i8], ptr %6, i64 0, i64 0
  call void (ptr, i32, ptr, ...) @cmsSignalError(ptr noundef %36, i32 noundef 12, ptr noundef @.str.14, ptr noundef %37)
  ret i32 0
}