; Function Attrs: nounwind uwtable
define internal void @SynError(ptr nocapture noundef %0, ptr nocapture noundef readonly %1, ...) unnamed_addr #0 {
  %3 = alloca [256 x i8], align 16
  %4 = alloca [1024 x i8], align 16
  %5 = alloca [1 x %struct.__va_list_tag], align 16
  call void @llvm.va_start.p0(ptr nonnull %5)
  %6 = call i32 @vsnprintf(ptr noundef nonnull %3, i64 noundef 255, ptr noundef %1, ptr noundef nonnull %5) #17
  %7 = getelementptr inbounds i8, ptr %3, i64 255
  store i8 0, ptr %7, align 1
  call void @llvm.va_end.p0(ptr nonnull %5)
  %8 = getelementptr inbounds i8, ptr %0, i64 271432
  %9 = getelementptr inbounds i8, ptr %0, i64 271592
  %10 = load i32, ptr %9, align 8
  %11 = sext i32 %10 to i64
  %12 = getelementptr inbounds [20 x ptr], ptr %8, i64 0, i64 %11
  %13 = load ptr, ptr %12, align 8
  %14 = getelementptr inbounds i8, ptr %0, i64 271424
  %15 = load i32, ptr %14, align 8
  %16 = call i32 (ptr, i64, ptr, ...) @snprintf(ptr noundef nonnull dereferenceable(1) %4, i64 noundef 1023, ptr noundef nonnull @.str.13, ptr noundef %13, i32 noundef %15, ptr noundef nonnull %3) #17
  %17 = getelementptr inbounds i8, ptr %4, i64 1023
  store i8 0, ptr %17, align 1
  %18 = getelementptr inbounds i8, ptr %0, i64 271360
  store i32 8, ptr %18, align 8
  %19 = getelementptr inbounds i8, ptr %0, i64 271736
  %20 = load ptr, ptr %19, align 8
  call void (ptr, i32, ptr, ...) @cmsSignalError(ptr noundef %20, i32 noundef 12, ptr noundef nonnull @.str.14, ptr noundef nonnull %4) #17
  ret void
}